(lp0
(dp1
I360000000
(dp2
sI21234949
(lp3
(dp4
S'fault_model'
p5
S'uniformLocationsDistribution'
p6
sS'component'
p7
S'processor_0'
p8
sS'mask'
p9
I128
sS'mask_function'
p10
S'bit_flip'
p11
sS'wrapper'
p12
S'trapRegisterBankWrapper'
p13
sS'attribute'
p14
S'RB'
p15
sS'line'
p16
I15
sS'bit'
p17
L7L
sasa(dp18
I360000000
(dp19
sI2705172
(lp20
(dp21
S'fault_model'
p22
S'uniformLocationsDistribution'
p23
sS'component'
p24
S'processor_0'
p25
sS'mask'
p26
I128
sS'mask_function'
p27
S'bit_flip'
p28
sS'wrapper'
p29
S'trapRegisterBankWrapper'
p30
sS'attribute'
p31
S'RB'
p32
sS'line'
p33
I15
sS'bit'
p34
L7L
sasa(dp35
I360000000
(dp36
sI288814822
(lp37
(dp38
S'fault_model'
p39
S'uniformLocationsDistribution'
p40
sS'component'
p41
S'processor_0'
p42
sS'mask'
p43
I8
sS'mask_function'
p44
S'bit_flip'
p45
sS'wrapper'
p46
S'trapRegisterBankWrapper'
p47
sS'attribute'
p48
S'RB'
p49
sS'line'
p50
I15
sS'bit'
p51
L3L
sasa(dp52
I360000000
(dp53
sI238870606
(lp54
(dp55
S'fault_model'
p56
S'uniformLocationsDistribution'
p57
sS'component'
p58
S'processor_0'
p59
sS'mask'
p60
I4
sS'mask_function'
p61
S'bit_flip'
p62
sS'wrapper'
p63
S'trapRegisterBankWrapper'
p64
sS'attribute'
p65
S'RB'
p66
sS'line'
p67
I15
sS'bit'
p68
L2L
sasa(dp69
I328651520
(lp70
(dp71
S'fault_model'
p72
S'uniformLocationsDistribution'
p73
sS'component'
p74
S'processor_0'
p75
sS'mask'
p76
I32
sS'mask_function'
p77
S'bit_flip'
p78
sS'wrapper'
p79
S'trapRegisterBankWrapper'
p80
sS'attribute'
p81
S'RB'
p82
sS'line'
p83
I15
sS'bit'
p84
L5L
sasI360000000
(dp85
S''
p86
g86
ssa.